target datalayout = "e-m:e-p270:32:32-p271:32:32-p272:64:64-i64:64-i128:128-f80:128-n8:16:32:64-S128"
target triple = "x86_64-pc-linux-gnu"

@psk_key = dso_local global ptr null, align 8
@.str.412 = private unnamed_addr constant [27 x i8] c"../openssl/apps/s_server.c\00", align 1
@bio_err = external global ptr, align 8
@psk_identity = internal global ptr @.str.474, align 8
@psksess = internal global ptr null, align 8
@.str.484 = private unnamed_addr constant [42 x i8] c"Could not convert PSK key '%s' to buffer\0A\00", align 1
@tls13_aes128gcmsha256_id = external constant [0 x i8], align 1
@.str.488 = private unnamed_addr constant [36 x i8] c"Error finding suitable ciphersuite\0A\00", align 1

; Function Attrs: nounwind uwtable
define internal i32 @psk_find_session_cb(ptr noundef %0, ptr noundef %1, i64 noundef %2, ptr noundef %3) #0 {
  %5 = alloca i32, align 4
  %6 = alloca ptr, align 8
  %7 = alloca ptr, align 8
  %8 = alloca i64, align 8
  %9 = alloca ptr, align 8
  %10 = alloca ptr, align 8
  %11 = alloca ptr, align 8
  %12 = alloca i64, align 8
  %13 = alloca ptr, align 8
  %14 = alloca i32, align 4
  store ptr %0, ptr %6, align 8, !tbaa !73
  store ptr %1, ptr %7, align 8, !tbaa !31
  store i64 %2, ptr %8, align 8, !tbaa !54
  store ptr %3, ptr %9, align 8, !tbaa !85
  call void @llvm.lifetime.start.p0(i64 8, ptr %10) #10
  store ptr null, ptr %10, align 8, !tbaa !66
  call void @llvm.lifetime.start.p0(i64 8, ptr %11) #10
  call void @llvm.lifetime.start.p0(i64 8, ptr %12) #10
  call void @llvm.lifetime.start.p0(i64 8, ptr %13) #10
  store ptr null, ptr %13, align 8, !tbaa !87
  %15 = load ptr, ptr @psk_identity, align 8, !tbaa !31
  %16 = call i64 @strlen(ptr noundef %15) #11
  %17 = load i64, ptr %8, align 8, !tbaa !54
  %18 = icmp ne i64 %16, %17
  br i1 %18, label %25, label %19

19:                                               ; preds = %4
  %20 = load ptr, ptr @psk_identity, align 8, !tbaa !31
  %21 = load ptr, ptr %7, align 8, !tbaa !31
  %22 = load i64, ptr %8, align 8, !tbaa !54
  %23 = call i32 @memcmp(ptr noundef %20, ptr noundef %21, i64 noundef %22) #11
  %24 = icmp ne i32 %23, 0
  br i1 %24, label %25, label %27

25:                                               ; preds = %19, %4
  %26 = load ptr, ptr %9, align 8, !tbaa !85
  store ptr null, ptr %26, align 8, !tbaa !66
  store i32 1, ptr %5, align 4
  store i32 1, ptr %14, align 4
  br label %81

27:                                               ; preds = %19
  %28 = load ptr, ptr @psksess, align 8, !tbaa !66
  %29 = icmp ne ptr %28, null
  br i1 %29, label %30, label %35

30:                                               ; preds = %27
  %31 = load ptr, ptr @psksess, align 8, !tbaa !66
  %32 = call i32 @SSL_SESSION_up_ref(ptr noundef %31)
  %33 = load ptr, ptr @psksess, align 8, !tbaa !66
  %34 = load ptr, ptr %9, align 8, !tbaa !85
  store ptr %33, ptr %34, align 8, !tbaa !66
  store i32 1, ptr %5, align 4
  store i32 1, ptr %14, align 4
  br label %81

35:                                               ; preds = %27
  %36 = load ptr, ptr @psk_key, align 8, !tbaa !31
  %37 = call ptr @OPENSSL_hexstr2buf(ptr noundef %36, ptr noundef %12)
  store ptr %37, ptr %11, align 8, !tbaa !31
  %38 = load ptr, ptr %11, align 8, !tbaa !31
  %39 = icmp eq ptr %38, null
  br i1 %39, label %40, label %44

40:                                               ; preds = %35
  %41 = load ptr, ptr @bio_err, align 8, !tbaa !35
  %42 = load ptr, ptr @psk_key, align 8, !tbaa !31
  %43 = call i32 (ptr, ptr, ...) @BIO_printf(ptr noundef %41, ptr noundef @.str.484, ptr noundef %42)
  store i32 0, ptr %5, align 4
  store i32 1, ptr %14, align 4
  br label %81

44:                                               ; preds = %35
  %45 = load ptr, ptr %6, align 8, !tbaa !73
  %46 = call ptr @SSL_CIPHER_find(ptr noundef %45, ptr noundef @tls13_aes128gcmsha256_id)
  store ptr %46, ptr %13, align 8, !tbaa !87
  %47 = load ptr, ptr %13, align 8, !tbaa !87
  %48 = icmp eq ptr %47, null
  br i1 %48, label %49, label %53

49:                                               ; preds = %44
  %50 = load ptr, ptr @bio_err, align 8, !tbaa !35
  %51 = call i32 (ptr, ptr, ...) @BIO_printf(ptr noundef %50, ptr noundef @.str.488)
  %52 = load ptr, ptr %11, align 8, !tbaa !31
  call void @CRYPTO_free(ptr noundef %52, ptr noundef @.str.412, i32 noundef 228)
  store i32 0, ptr %5, align 4
  store i32 1, ptr %14, align 4
  br label %81

53:                                               ; preds = %44
  %54 = call ptr @SSL_SESSION_new()
  store ptr %54, ptr %10, align 8, !tbaa !66
  %55 = load ptr, ptr %10, align 8, !tbaa !66
  %56 = icmp eq ptr %55, null
  br i1 %56, label %74, label %57

57:                                               ; preds = %53
  %58 = load ptr, ptr %10, align 8, !tbaa !66
  %59 = load ptr, ptr %11, align 8, !tbaa !31
  %60 = load i64, ptr %12, align 8, !tbaa !54
  %61 = call i32 @SSL_SESSION_set1_master_key(ptr noundef %58, ptr noundef %59, i64 noundef %60)
  %62 = icmp ne i32 %61, 0
  br i1 %62, label %63, label %74

63:                                               ; preds = %57
  %64 = load ptr, ptr %10, align 8, !tbaa !66
  %65 = load ptr, ptr %13, align 8, !tbaa !87
  %66 = call i32 @SSL_SESSION_set_cipher(ptr noundef %64, ptr noundef %65)
  %67 = icmp ne i32 %66, 0
  br i1 %67, label %68, label %74

68:                                               ; preds = %63
  %69 = load ptr, ptr %10, align 8, !tbaa !66
  %70 = load ptr, ptr %6, align 8, !tbaa !73
  %71 = call i32 @SSL_version(ptr noundef %70)
  %72 = call i32 @SSL_SESSION_set_protocol_version(ptr noundef %69, i32 noundef %71)
  %73 = icmp ne i32 %72, 0
  br i1 %73, label %77, label %74

74:                                               ; preds = %68, %63, %57, %53
  %75 = load ptr, ptr %11, align 8, !tbaa !31
  call void @CRYPTO_free(ptr noundef %75, ptr noundef @.str.412, i32 noundef 237)
  %76 = load ptr, ptr %10, align 8, !tbaa !66
  call void @SSL_SESSION_free(ptr noundef %76)
  store i32 0, ptr %5, align 4
  store i32 1, ptr %14, align 4
  br label %81

77:                                               ; preds = %68
  %78 = load ptr, ptr %11, align 8, !tbaa !31
  call void @CRYPTO_free(ptr noundef %78, ptr noundef @.str.412, i32 noundef 241)
  %79 = load ptr, ptr %10, align 8, !tbaa !66
  %80 = load ptr, ptr %9, align 8, !tbaa !85
  store ptr %79, ptr %80, align 8, !tbaa !66
  store i32 1, ptr %5, align 4
  store i32 1, ptr %14, align 4
  br label %81

81:                                               ; preds = %77, %74, %49, %40, %30, %25
  call void @llvm.lifetime.end.p0(i64 8, ptr %13) #10
  call void @llvm.lifetime.end.p0(i64 8, ptr %12) #10
  call void @llvm.lifetime.end.p0(i64 8, ptr %11) #10
  call void @llvm.lifetime.end.p0(i64 8, ptr %10) #10
  %82 = load i32, ptr %5, align 4
  ret i32 %82
}