; Function Attrs: nounwind uwtable
define internal range(i32 0, 2) i32 @psk_find_session_cb(ptr noundef %0, ptr noundef readonly captures(none) %1, i64 noundef %2, ptr noundef writeonly captures(none) %3) #0 {
  %5 = alloca i64, align 8
  call void @llvm.lifetime.start.p0(i64 8, ptr nonnull %5) #14
  %6 = load ptr, ptr @psk_identity, align 8, !tbaa !11
  %7 = tail call i64 @strlen(ptr noundef nonnull dereferenceable(1) %6) #16
  %.not = icmp eq i64 %7, %2
  br i1 %.not, label %8, label %9

8:                                                ; preds = %4
  %bcmp = tail call i32 @bcmp(ptr nonnull %6, ptr %1, i64 %2)
  %.not26 = icmp eq i32 %bcmp, 0
  br i1 %.not26, label %10, label %9

9:                                                ; preds = %8, %4
  store ptr null, ptr %3, align 8, !tbaa !48
  br label %42

10:                                               ; preds = %8
  %11 = load ptr, ptr @psksess, align 8, !tbaa !48
  %.not27 = icmp eq ptr %11, null
  br i1 %.not27, label %15, label %12

12:                                               ; preds = %10
  %13 = tail call i32 @SSL_SESSION_up_ref(ptr noundef nonnull %11) #14
  %14 = load ptr, ptr @psksess, align 8, !tbaa !48
  store ptr %14, ptr %3, align 8, !tbaa !48
  br label %42

15:                                               ; preds = %10
  %16 = load ptr, ptr @psk_key, align 8, !tbaa !11
  %17 = call ptr @OPENSSL_hexstr2buf(ptr noundef %16, ptr noundef nonnull %5) #14
  %18 = icmp eq ptr %17, null
  br i1 %18, label %19, label %23

19:                                               ; preds = %15
  %20 = load ptr, ptr @bio_err, align 8, !tbaa !19
  %21 = load ptr, ptr @psk_key, align 8, !tbaa !11
  %22 = call i32 (ptr, ptr, ...) @BIO_printf(ptr noundef %20, ptr noundef nonnull @.str.484, ptr noundef %21) #14
  br label %42

23:                                               ; preds = %15
  %24 = call ptr @SSL_CIPHER_find(ptr noundef %0, ptr noundef nonnull @tls13_aes128gcmsha256_id) #14
  %25 = icmp eq ptr %24, null
  br i1 %25, label %26, label %29

26:                                               ; preds = %23
  %27 = load ptr, ptr @bio_err, align 8, !tbaa !19
  %28 = call i32 (ptr, ptr, ...) @BIO_printf(ptr noundef %27, ptr noundef nonnull @.str.488) #14
  call void @CRYPTO_free(ptr noundef nonnull %17, ptr noundef nonnull @.str.412, i32 noundef 228) #14
  br label %42

29:                                               ; preds = %23
  %30 = call ptr @SSL_SESSION_new() #14
  %31 = icmp eq ptr %30, null
  br i1 %31, label %40, label %32

32:                                               ; preds = %29
  %33 = load i64, ptr %5, align 8, !tbaa !38
  %34 = call i32 @SSL_SESSION_set1_master_key(ptr noundef nonnull %30, ptr noundef nonnull %17, i64 noundef %33) #14
  %.not28 = icmp eq i32 %34, 0
  br i1 %.not28, label %40, label %35

35:                                               ; preds = %32
  %36 = call i32 @SSL_SESSION_set_cipher(ptr noundef nonnull %30, ptr noundef nonnull %24) #14
  %.not29 = icmp eq i32 %36, 0
  br i1 %.not29, label %40, label %37

37:                                               ; preds = %35
  %38 = call i32 @SSL_version(ptr noundef %0) #14
  %39 = call i32 @SSL_SESSION_set_protocol_version(ptr noundef nonnull %30, i32 noundef %38) #14
  %.not30 = icmp eq i32 %39, 0
  br i1 %.not30, label %40, label %41

40:                                               ; preds = %37, %35, %32, %29
  call void @CRYPTO_free(ptr noundef nonnull %17, ptr noundef nonnull @.str.412, i32 noundef 237) #14
  call void @SSL_SESSION_free(ptr noundef %30) #14
  br label %42

41:                                               ; preds = %37
  call void @CRYPTO_free(ptr noundef nonnull %17, ptr noundef nonnull @.str.412, i32 noundef 241) #14
  store ptr %30, ptr %3, align 8, !tbaa !48
  br label %42

42:                                               ; preds = %41, %40, %26, %19, %12, %9
  %.0 = phi i32 [ 1, %9 ], [ 1, %12 ], [ 0, %19 ], [ 0, %26 ], [ 0, %40 ], [ 1, %41 ]
  call void @llvm.lifetime.end.p0(i64 8, ptr nonnull %5) #14
  ret i32 %.0
}